target datalayout = "e-m:e-p270:32:32-p271:32:32-p272:64:64-i64:64-i128:128-f80:128-n8:16:32:64-S128"
target triple = "x86_64-pc-linux-gnu"

%struct.ggml_hash_set = type { i64, ptr, ptr }
%struct.ggml_backend_sched = type { i8, i8, i32, [16 x ptr], [16 x ptr], ptr, %struct.ggml_hash_set, ptr, ptr, ptr, ptr, ptr, ptr, %struct.ggml_cgraph, ptr, i32, i32, i32, i32, [16 x [4 x ptr]], [10 x ptr], i32, ptr, ptr, ptr, ptr, i64, i32 }
%struct.ggml_cgraph = type { i32, i32, i32, ptr, ptr, ptr, ptr, %struct.ggml_hash_set, i32 }

@.str = private unnamed_addr constant [123 x i8] c"generated/home/dtcxzyw/WorkSpace/Projects/compilers/llvm-opt-benchmark/bench/llama.cpp/llama.cpp/ggml/src/ggml-backend.cpp\00", align 1
@.str.1 = private unnamed_addr constant [23 x i8] c"GGML_ASSERT(%s) failed\00", align 1
@.str.27 = private unnamed_addr constant [56 x i8] c"backend_index >= 0 && backend_index < sched->n_backends\00", align 1

; Function Attrs: mustprogress nounwind uwtable
define internal noundef i32 @_ZL29ggml_backend_sched_backend_idP18ggml_backend_schedP12ggml_backend(ptr noundef %0, ptr noundef %1) #4 {
  %3 = alloca i32, align 4
  %4 = alloca ptr, align 8
  %5 = alloca ptr, align 8
  %6 = alloca i32, align 4
  %7 = alloca i32, align 4
  store ptr %0, ptr %4, align 8, !tbaa !131
  store ptr %1, ptr %5, align 8, !tbaa !56
  call void @llvm.lifetime.start.p0(i64 4, ptr %6) #15
  store i32 0, ptr %6, align 4, !tbaa !89
  br label %8

8:                                                ; preds = %27, %2
  %9 = load i32, ptr %6, align 4, !tbaa !89
  %10 = load ptr, ptr %4, align 8, !tbaa !131
  %11 = getelementptr inbounds nuw %struct.ggml_backend_sched, ptr %10, i32 0, i32 2
  %12 = load i32, ptr %11, align 4, !tbaa !143
  %13 = icmp slt i32 %9, %12
  br i1 %13, label %15, label %14

14:                                               ; preds = %8
  store i32 2, ptr %7, align 4
  br label %30

15:                                               ; preds = %8
  %16 = load ptr, ptr %4, align 8, !tbaa !131
  %17 = getelementptr inbounds nuw %struct.ggml_backend_sched, ptr %16, i32 0, i32 3
  %18 = load i32, ptr %6, align 4, !tbaa !89
  %19 = sext i32 %18 to i64
  %20 = getelementptr inbounds [16 x ptr], ptr %17, i64 0, i64 %19
  %21 = load ptr, ptr %20, align 8, !tbaa !56
  %22 = load ptr, ptr %5, align 8, !tbaa !56
  %23 = icmp eq ptr %21, %22
  br i1 %23, label %24, label %26

24:                                               ; preds = %15
  %25 = load i32, ptr %6, align 4, !tbaa !89
  store i32 %25, ptr %3, align 4
  store i32 1, ptr %7, align 4
  br label %30

26:                                               ; preds = %15
  br label %27

27:                                               ; preds = %26
  %28 = load i32, ptr %6, align 4, !tbaa !89
  %29 = add nsw i32 %28, 1
  store i32 %29, ptr %6, align 4, !tbaa !89
  br label %8, !llvm.loop !235

30:                                               ; preds = %24, %14
  call void @llvm.lifetime.end.p0(i64 4, ptr %6) #15
  %31 = load i32, ptr %7, align 4
  switch i32 %31, label %35 [
    i32 2, label %32
    i32 1, label %33
  ]

32:                                               ; preds = %30
  store i32 -1, ptr %3, align 4
  br label %33

33:                                               ; preds = %32, %30
  %34 = load i32, ptr %3, align 4
  ret i32 %34

35:                                               ; preds = %30
  unreachable
}

; Function Attrs: mustprogress uwtable
define i64 @ggml_backend_sched_get_buffer_size(ptr noundef %0, ptr noundef %1) #0 {
  %3 = alloca ptr, align 8
  %4 = alloca ptr, align 8
  %5 = alloca i32, align 4
  store ptr %0, ptr %3, align 8, !tbaa !131
  store ptr %1, ptr %4, align 8, !tbaa !56
  call void @llvm.lifetime.start.p0(i64 4, ptr %5) #15
  %6 = load ptr, ptr %3, align 8, !tbaa !131
  %7 = load ptr, ptr %4, align 8, !tbaa !56
  %8 = call noundef i32 @_ZL29ggml_backend_sched_backend_idP18ggml_backend_schedP12ggml_backend(ptr noundef %6, ptr noundef %7)
  store i32 %8, ptr %5, align 4, !tbaa !89
  %9 = load i32, ptr %5, align 4, !tbaa !89
  %10 = icmp sge i32 %9, 0
  br i1 %10, label %11, label %17

11:                                               ; preds = %2
  %12 = load i32, ptr %5, align 4, !tbaa !89
  %13 = load ptr, ptr %3, align 8, !tbaa !131
  %14 = getelementptr inbounds nuw %struct.ggml_backend_sched, ptr %13, i32 0, i32 2
  %15 = load i32, ptr %14, align 4, !tbaa !143
  %16 = icmp slt i32 %12, %15
  br i1 %16, label %18, label %17

17:                                               ; preds = %11, %2
  call void (ptr, i32, ptr, ...) @ggml_abort(ptr noundef @.str, i32 noundef 1621, ptr noundef @.str.1, ptr noundef @.str.27) #18
  unreachable

18:                                               ; preds = %11
  %19 = load ptr, ptr %3, align 8, !tbaa !131
  %20 = getelementptr inbounds nuw %struct.ggml_backend_sched, ptr %19, i32 0, i32 5
  %21 = load ptr, ptr %20, align 8, !tbaa !163
  %22 = load i32, ptr %5, align 4, !tbaa !89
  %23 = call i64 @ggml_gallocr_get_buffer_size(ptr noundef %21, i32 noundef %22)
  call void @llvm.lifetime.end.p0(i64 4, ptr %5) #15
  ret i64 %23
}