; Function Attrs: mustprogress uwtable
define i64 @ggml_backend_sched_get_buffer_size(ptr noundef readonly captures(none) %0, ptr noundef readnone %1) local_unnamed_addr #0 {
  %3 = getelementptr inbounds nuw i8, ptr %0, i64 8
  %4 = getelementptr inbounds nuw i8, ptr %0, i64 4
  %5 = load i32, ptr %4, align 4, !tbaa !115
  %.not10.i = icmp sgt i32 %5, 0
  br i1 %.not10.i, label %.lr.ph.preheader.i, label %_ZL29ggml_backend_sched_backend_idP18ggml_backend_schedP12ggml_backend.exit.thread

.lr.ph.preheader.i:                               ; preds = %2
  %wide.trip.count.i = zext nneg i32 %5 to i64
  br label %.lr.ph.i

.lr.ph.i:                                         ; preds = %9, %.lr.ph.preheader.i
  %indvars.iv.i = phi i64 [ 0, %.lr.ph.preheader.i ], [ %indvars.iv.next.i, %9 ]
  %6 = getelementptr inbounds nuw [16 x ptr], ptr %3, i64 0, i64 %indvars.iv.i
  %7 = load ptr, ptr %6, align 8, !tbaa !102
  %8 = icmp eq ptr %7, %1
  br i1 %8, label %_ZL29ggml_backend_sched_backend_idP18ggml_backend_schedP12ggml_backend.exit, label %9

9:                                                ; preds = %.lr.ph.i
  %indvars.iv.next.i = add nuw nsw i64 %indvars.iv.i, 1
  %exitcond.not.i = icmp eq i64 %indvars.iv.next.i, %wide.trip.count.i
  br i1 %exitcond.not.i, label %_ZL29ggml_backend_sched_backend_idP18ggml_backend_schedP12ggml_backend.exit.thread, label %.lr.ph.i, !llvm.loop !216

_ZL29ggml_backend_sched_backend_idP18ggml_backend_schedP12ggml_backend.exit: ; preds = %.lr.ph.i
  %10 = trunc nuw nsw i64 %indvars.iv.i to i32
  %11 = icmp sgt i32 %5, %10
  br i1 %11, label %12, label %_ZL29ggml_backend_sched_backend_idP18ggml_backend_schedP12ggml_backend.exit.thread

_ZL29ggml_backend_sched_backend_idP18ggml_backend_schedP12ggml_backend.exit.thread: ; preds = %9, %2, %_ZL29ggml_backend_sched_backend_idP18ggml_backend_schedP12ggml_backend.exit
  tail call void (ptr, i32, ptr, ...) @ggml_abort(ptr noundef nonnull @.str, i32 noundef 1621, ptr noundef nonnull @.str.1, ptr noundef nonnull @.str.27) #24
  unreachable

12:                                               ; preds = %_ZL29ggml_backend_sched_backend_idP18ggml_backend_schedP12ggml_backend.exit
  %13 = getelementptr inbounds nuw i8, ptr %0, i64 264
  %14 = load ptr, ptr %13, align 8, !tbaa !131
  %15 = tail call i64 @ggml_gallocr_get_buffer_size(ptr noundef %14, i32 noundef %10)
  ret i64 %15
}